target datalayout = "e-m:e-p270:32:32-p271:32:32-p272:64:64-i64:64-i128:128-f80:128-n8:16:32:64-S128"
target triple = "x86_64-pc-linux-gnu"

%struct.CallReply = type { ptr, ptr, ptr, i64, i32, i32, i64, %union.anon, ptr, ptr }
%union.anon = type { %struct.anon }
%struct.anon = type { ptr, ptr }
%struct.sdshdr8 = type { i8, i8, i8, [0 x i8] }
%struct.sdshdr16 = type <{ i16, i16, i8, [0 x i8] }>
%struct.sdshdr32 = type <{ i32, i32, i8, [0 x i8] }>
%struct.sdshdr64 = type <{ i64, i64, i8, [0 x i8] }>
%struct.list = type { ptr, ptr, ptr, ptr, ptr, i64 }

@.str = private unnamed_addr constant [10 x i8] c"-ERR %S\0D\0A\00", align 1

; Function Attrs: inlinehint nounwind uwtable
define internal i64 @sdslen(ptr noundef %0) #4 {
  %2 = alloca i64, align 8
  %3 = alloca ptr, align 8
  %4 = alloca i8, align 1
  %5 = alloca i32, align 4
  store ptr %0, ptr %3, align 8, !tbaa !40
  call void @llvm.lifetime.start.p0(i64 1, ptr %4) #6
  %6 = load ptr, ptr %3, align 8, !tbaa !40
  %7 = getelementptr inbounds i8, ptr %6, i64 -1
  %8 = load i8, ptr %7, align 1, !tbaa !21
  store i8 %8, ptr %4, align 1, !tbaa !21
  %9 = load i8, ptr %4, align 1, !tbaa !21
  %10 = zext i8 %9 to i32
  %11 = and i32 %10, 7
  switch i32 %11, label %40 [
    i32 0, label %12
    i32 1, label %17
    i32 2, label %23
    i32 3, label %29
    i32 4, label %35
  ]

12:                                               ; preds = %1
  %13 = load i8, ptr %4, align 1, !tbaa !21
  %14 = zext i8 %13 to i32
  %15 = ashr i32 %14, 3
  %16 = sext i32 %15 to i64
  store i64 %16, ptr %2, align 8
  store i32 1, ptr %5, align 4
  br label %41

17:                                               ; preds = %1
  %18 = load ptr, ptr %3, align 8, !tbaa !40
  %19 = getelementptr inbounds i8, ptr %18, i64 -3
  %20 = getelementptr inbounds nuw %struct.sdshdr8, ptr %19, i32 0, i32 0
  %21 = load i8, ptr %20, align 1, !tbaa !21
  %22 = zext i8 %21 to i64
  store i64 %22, ptr %2, align 8
  store i32 1, ptr %5, align 4
  br label %41

23:                                               ; preds = %1
  %24 = load ptr, ptr %3, align 8, !tbaa !40
  %25 = getelementptr inbounds i8, ptr %24, i64 -5
  %26 = getelementptr inbounds nuw %struct.sdshdr16, ptr %25, i32 0, i32 0
  %27 = load i16, ptr %26, align 1, !tbaa !43
  %28 = zext i16 %27 to i64
  store i64 %28, ptr %2, align 8
  store i32 1, ptr %5, align 4
  br label %41

29:                                               ; preds = %1
  %30 = load ptr, ptr %3, align 8, !tbaa !40
  %31 = getelementptr inbounds i8, ptr %30, i64 -9
  %32 = getelementptr inbounds nuw %struct.sdshdr32, ptr %31, i32 0, i32 0
  %33 = load i32, ptr %32, align 1, !tbaa !35
  %34 = zext i32 %33 to i64
  store i64 %34, ptr %2, align 8
  store i32 1, ptr %5, align 4
  br label %41

35:                                               ; preds = %1
  %36 = load ptr, ptr %3, align 8, !tbaa !40
  %37 = getelementptr inbounds i8, ptr %36, i64 -17
  %38 = getelementptr inbounds nuw %struct.sdshdr64, ptr %37, i32 0, i32 0
  %39 = load i64, ptr %38, align 1, !tbaa !19
  store i64 %39, ptr %2, align 8
  store i32 1, ptr %5, align 4
  br label %41

40:                                               ; preds = %1
  store i64 0, ptr %2, align 8
  store i32 1, ptr %5, align 4
  br label %41

41:                                               ; preds = %40, %35, %29, %23, %17, %12
  call void @llvm.lifetime.end.p0(i64 1, ptr %4) #6
  %42 = load i64, ptr %2, align 8
  ret i64 %42
}

; Function Attrs: nounwind uwtable
define dso_local ptr @callReplyCreate(ptr noundef %0, ptr noundef %1, ptr noundef %2) #0 {
  %4 = alloca ptr, align 8
  %5 = alloca ptr, align 8
  %6 = alloca ptr, align 8
  %7 = alloca ptr, align 8
  store ptr %0, ptr %4, align 8, !tbaa !40
  store ptr %1, ptr %5, align 8, !tbaa !42
  store ptr %2, ptr %6, align 8, !tbaa !26
  call void @llvm.lifetime.start.p0(i64 8, ptr %7) #6
  %8 = call noalias ptr @zmalloc(i64 noundef 80) #7
  store ptr %8, ptr %7, align 8, !tbaa !5
  %9 = load ptr, ptr %7, align 8, !tbaa !5
  %10 = getelementptr inbounds nuw %struct.CallReply, ptr %9, i32 0, i32 5
  store i32 1, ptr %10, align 4, !tbaa !10
  %11 = load ptr, ptr %4, align 8, !tbaa !40
  %12 = load ptr, ptr %7, align 8, !tbaa !5
  %13 = getelementptr inbounds nuw %struct.CallReply, ptr %12, i32 0, i32 1
  store ptr %11, ptr %13, align 8, !tbaa !17
  %14 = load ptr, ptr %4, align 8, !tbaa !40
  %15 = load ptr, ptr %7, align 8, !tbaa !5
  %16 = getelementptr inbounds nuw %struct.CallReply, ptr %15, i32 0, i32 2
  store ptr %14, ptr %16, align 8, !tbaa !28
  %17 = load ptr, ptr %4, align 8, !tbaa !40
  %18 = call i64 @sdslen(ptr noundef %17)
  %19 = load ptr, ptr %7, align 8, !tbaa !5
  %20 = getelementptr inbounds nuw %struct.CallReply, ptr %19, i32 0, i32 3
  store i64 %18, ptr %20, align 8, !tbaa !41
  %21 = load ptr, ptr %6, align 8, !tbaa !26
  %22 = load ptr, ptr %7, align 8, !tbaa !5
  %23 = getelementptr inbounds nuw %struct.CallReply, ptr %22, i32 0, i32 0
  store ptr %21, ptr %23, align 8, !tbaa !27
  %24 = load ptr, ptr %7, align 8, !tbaa !5
  %25 = getelementptr inbounds nuw %struct.CallReply, ptr %24, i32 0, i32 9
  store ptr null, ptr %25, align 8, !tbaa !25
  %26 = load ptr, ptr %5, align 8, !tbaa !42
  %27 = load ptr, ptr %7, align 8, !tbaa !5
  %28 = getelementptr inbounds nuw %struct.CallReply, ptr %27, i32 0, i32 8
  store ptr %26, ptr %28, align 8, !tbaa !18
  %29 = load ptr, ptr %7, align 8, !tbaa !5
  call void @llvm.lifetime.end.p0(i64 8, ptr %7) #6
  ret ptr %29
}

; Function Attrs: nounwind uwtable
define dso_local ptr @callReplyCreateError(ptr noundef %0, ptr noundef %1) #0 {
  %3 = alloca ptr, align 8
  %4 = alloca ptr, align 8
  %5 = alloca ptr, align 8
  %6 = alloca ptr, align 8
  store ptr %0, ptr %3, align 8, !tbaa !40
  store ptr %1, ptr %4, align 8, !tbaa !26
  call void @llvm.lifetime.start.p0(i64 8, ptr %5) #6
  %7 = load ptr, ptr %3, align 8, !tbaa !40
  store ptr %7, ptr %5, align 8, !tbaa !40
  %8 = load ptr, ptr %5, align 8, !tbaa !40
  %9 = getelementptr inbounds i8, ptr %8, i64 0
  %10 = load i8, ptr %9, align 1, !tbaa !21
  %11 = sext i8 %10 to i32
  %12 = icmp ne i32 %11, 45
  br i1 %12, label %13, label %18

13:                                               ; preds = %2
  %14 = call ptr @sdsempty()
  %15 = load ptr, ptr %3, align 8, !tbaa !40
  %16 = call ptr (ptr, ptr, ...) @sdscatfmt(ptr noundef %14, ptr noundef @.str, ptr noundef %15)
  store ptr %16, ptr %5, align 8, !tbaa !40
  %17 = load ptr, ptr %3, align 8, !tbaa !40
  call void @sdsfree(ptr noundef %17)
  br label %18

18:                                               ; preds = %13, %2
  call void @llvm.lifetime.start.p0(i64 8, ptr %6) #6
  %19 = call ptr @listCreate()
  store ptr %19, ptr %6, align 8, !tbaa !42
  %20 = load ptr, ptr %6, align 8, !tbaa !42
  %21 = getelementptr inbounds nuw %struct.list, ptr %20, i32 0, i32 3
  store ptr @sdsfreegeneric, ptr %21, align 8, !tbaa !45
  %22 = load ptr, ptr %6, align 8, !tbaa !42
  %23 = load ptr, ptr %5, align 8, !tbaa !40
  %24 = call ptr @sdsnew(ptr noundef %23)
  %25 = call ptr @listAddNodeTail(ptr noundef %22, ptr noundef %24)
  %26 = load ptr, ptr %5, align 8, !tbaa !40
  %27 = load ptr, ptr %6, align 8, !tbaa !42
  %28 = load ptr, ptr %4, align 8, !tbaa !26
  %29 = call ptr @callReplyCreate(ptr noundef %26, ptr noundef %27, ptr noundef %28)
  call void @llvm.lifetime.end.p0(i64 8, ptr %6) #6
  call void @llvm.lifetime.end.p0(i64 8, ptr %5) #6
  ret ptr %29
}