; Function Attrs: nounwind uwtable
define dso_local noalias noundef ptr @callReplyCreateError(ptr noundef %0, ptr noundef %1) local_unnamed_addr #0 {
  %3 = load i8, ptr %0, align 1, !tbaa !19
  %.not = icmp eq i8 %3, 45
  br i1 %.not, label %7, label %4

4:                                                ; preds = %2
  %5 = tail call ptr @sdsempty() #8
  %6 = tail call ptr (ptr, ptr, ...) @sdscatfmt(ptr noundef %5, ptr noundef nonnull @.str, ptr noundef nonnull %0) #8
  tail call void @sdsfree(ptr noundef nonnull %0) #8
  br label %7

7:                                                ; preds = %4, %2
  %.0 = phi ptr [ %6, %4 ], [ %0, %2 ]
  %8 = tail call ptr @listCreate() #8
  %9 = getelementptr inbounds nuw i8, ptr %8, i64 24
  store ptr @sdsfreegeneric, ptr %9, align 8, !tbaa !38
  %10 = tail call ptr @sdsnew(ptr noundef %.0) #8
  %11 = tail call ptr @listAddNodeTail(ptr noundef %8, ptr noundef %10) #8
  %12 = tail call noalias dereferenceable_or_null(80) ptr @zmalloc(i64 noundef 80) #9
  %13 = getelementptr inbounds nuw i8, ptr %12, i64 36
  store i32 1, ptr %13, align 4, !tbaa !5
  %14 = getelementptr inbounds nuw i8, ptr %12, i64 8
  store ptr %.0, ptr %14, align 8, !tbaa !16
  %15 = getelementptr inbounds nuw i8, ptr %12, i64 16
  store ptr %.0, ptr %15, align 8, !tbaa !25
  %16 = getelementptr inbounds i8, ptr %.0, i64 -1
  %17 = load i8, ptr %16, align 1, !tbaa !19
  %18 = zext i8 %17 to i32
  %19 = and i32 %18, 7
  switch i32 %19, label %callReplyCreate.exit [
    i32 0, label %20
    i32 1, label %23
    i32 2, label %27
    i32 3, label %31
    i32 4, label %35
  ]

20:                                               ; preds = %7
  %21 = lshr i32 %18, 3
  %22 = zext nneg i32 %21 to i64
  br label %callReplyCreate.exit

23:                                               ; preds = %7
  %24 = getelementptr inbounds i8, ptr %.0, i64 -3
  %25 = load i8, ptr %24, align 1, !tbaa !19
  %26 = zext i8 %25 to i64
  br label %callReplyCreate.exit

27:                                               ; preds = %7
  %28 = getelementptr inbounds i8, ptr %.0, i64 -5
  %29 = load i16, ptr %28, align 1, !tbaa !35
  %30 = zext i16 %29 to i64
  br label %callReplyCreate.exit

31:                                               ; preds = %7
  %32 = getelementptr inbounds i8, ptr %.0, i64 -9
  %33 = load i32, ptr %32, align 1, !tbaa !37
  %34 = zext i32 %33 to i64
  br label %callReplyCreate.exit

35:                                               ; preds = %7
  %36 = getelementptr inbounds i8, ptr %.0, i64 -17
  %37 = load i64, ptr %36, align 1, !tbaa !31
  br label %callReplyCreate.exit

callReplyCreate.exit:                             ; preds = %7, %20, %23, %27, %31, %35
  %.0.i.i = phi i64 [ %37, %35 ], [ %34, %31 ], [ %30, %27 ], [ %26, %23 ], [ %22, %20 ], [ 0, %7 ]
  %38 = getelementptr inbounds nuw i8, ptr %12, i64 24
  store i64 %.0.i.i, ptr %38, align 8, !tbaa !34
  store ptr %1, ptr %12, align 8, !tbaa !24
  %39 = getelementptr inbounds nuw i8, ptr %12, i64 72
  store ptr null, ptr %39, align 8, !tbaa !23
  %40 = getelementptr inbounds nuw i8, ptr %12, i64 64
  store ptr %8, ptr %40, align 8, !tbaa !17
  ret ptr %12
}